target datalayout = "e-m:e-p270:32:32-p271:32:32-p272:64:64-i64:64-i128:128-f80:128-n8:16:32:64-S128"
target triple = "x86_64-pc-linux-gnu"

%struct.expert_field = type { i32, i32 }

@ett_rtse_unknown = internal global i32 0, align 4
@ei_rtse_dissector_oid_not_implemented = internal global %struct.expert_field zeroinitializer, align 4
@rtse_oid_dissector_table = internal global ptr null, align 8
@.str.104 = private unnamed_addr constant [100 x i8] c"RTSE: Dissector for OID:%s not implemented. Contact Wireshark developers if you want this supported\00", align 1
@.str.105 = private unnamed_addr constant [43 x i8] c"RTSE: Dissector for OID %s not implemented\00", align 1

; Function Attrs: null_pointer_is_valid sspstrong uwtable
define internal i32 @call_rtse_oid_callback(ptr noundef %0, ptr noundef %1, i32 noundef %2, ptr noundef %3, ptr noundef %4, ptr noundef %5) #0 {
  %7 = alloca ptr, align 8
  %8 = alloca ptr, align 8
  %9 = alloca i32, align 4
  %10 = alloca ptr, align 8
  %11 = alloca ptr, align 8
  %12 = alloca ptr, align 8
  %13 = alloca ptr, align 8
  %14 = alloca i32, align 4
  %15 = alloca ptr, align 8
  %16 = alloca ptr, align 8
  store ptr %0, ptr %7, align 8
  store ptr %1, ptr %8, align 8
  store i32 %2, ptr %9, align 4
  store ptr %3, ptr %10, align 8
  store ptr %4, ptr %11, align 8
  store ptr %5, ptr %12, align 8
  call void @llvm.lifetime.start.p0(i64 8, ptr %13) #4
  call void @llvm.lifetime.start.p0(i64 4, ptr %14) #4
  %17 = load ptr, ptr %8, align 8
  %18 = load i32, ptr %9, align 4
  %19 = call ptr @tvb_new_subset_remaining(ptr noundef %17, i32 noundef %18)
  store ptr %19, ptr %13, align 8
  %20 = load ptr, ptr @rtse_oid_dissector_table, align 8
  %21 = load ptr, ptr %7, align 8
  %22 = load ptr, ptr %13, align 8
  %23 = load ptr, ptr %10, align 8
  %24 = load ptr, ptr %11, align 8
  %25 = load ptr, ptr %12, align 8
  %26 = call i32 @dissector_try_string_with_data(ptr noundef %20, ptr noundef %21, ptr noundef %22, ptr noundef %23, ptr noundef %24, i1 noundef zeroext true, ptr noundef %25)
  store i32 %26, ptr %14, align 4
  %27 = icmp eq i32 %26, 0
  br i1 %27, label %28, label %43

28:                                               ; preds = %6
  call void @llvm.lifetime.start.p0(i64 8, ptr %15) #4
  call void @llvm.lifetime.start.p0(i64 8, ptr %16) #4
  %29 = load ptr, ptr %11, align 8
  %30 = load ptr, ptr %13, align 8
  %31 = load i32, ptr @ett_rtse_unknown, align 4
  %32 = load ptr, ptr %7, align 8
  %33 = call ptr (ptr, ptr, i32, i32, i32, ptr, ptr, ...) @proto_tree_add_subtree_format(ptr noundef %29, ptr noundef %30, i32 noundef 0, i32 noundef -1, i32 noundef %31, ptr noundef %15, ptr noundef @.str.104, ptr noundef %32)
  store ptr %33, ptr %16, align 8
  %34 = load ptr, ptr %10, align 8
  %35 = load ptr, ptr %15, align 8
  %36 = load ptr, ptr %7, align 8
  %37 = call ptr (ptr, ptr, ptr, ptr, ...) @expert_add_info_format(ptr noundef %34, ptr noundef %35, ptr noundef @ei_rtse_dissector_oid_not_implemented, ptr noundef @.str.105, ptr noundef %36)
  %38 = load ptr, ptr %10, align 8
  %39 = load ptr, ptr %13, align 8
  %40 = load i32, ptr %9, align 4
  %41 = load ptr, ptr %16, align 8
  %42 = call i32 @dissect_unknown_ber(ptr noundef %38, ptr noundef %39, i32 noundef %40, ptr noundef %41)
  store i32 %42, ptr %14, align 4
  call void @llvm.lifetime.end.p0(i64 8, ptr %16) #4
  call void @llvm.lifetime.end.p0(i64 8, ptr %15) #4
  br label %43

43:                                               ; preds = %28, %6
  %44 = load i32, ptr %14, align 4
  %45 = load i32, ptr %9, align 4
  %46 = add i32 %45, %44
  store i32 %46, ptr %9, align 4
  %47 = load i32, ptr %9, align 4
  call void @llvm.lifetime.end.p0(i64 4, ptr %14) #4
  call void @llvm.lifetime.end.p0(i64 8, ptr %13) #4
  ret i32 %47
}