; Function Attrs: null_pointer_is_valid sspstrong uwtable
define internal fastcc i32 @call_rtse_oid_callback(ptr noundef %0, ptr noundef %1, i32 noundef %2, ptr noundef %3, ptr noundef %4, ptr noundef %5) unnamed_addr #0 {
  %7 = alloca ptr, align 8
  %8 = tail call ptr @tvb_new_subset_remaining(ptr noundef %1, i32 noundef %2)
  %9 = load ptr, ptr @rtse_oid_dissector_table, align 8
  %10 = tail call i32 @dissector_try_string_with_data(ptr noundef %9, ptr noundef %0, ptr noundef %8, ptr noundef %3, ptr noundef %4, i1 noundef zeroext true, ptr noundef %5)
  %11 = icmp eq i32 %10, 0
  br i1 %11, label %12, label %18

12:                                               ; preds = %6
  call void @llvm.lifetime.start.p0(i64 8, ptr nonnull %7) #4
  %13 = load i32, ptr @ett_rtse_unknown, align 4
  %14 = call ptr (ptr, ptr, i32, i32, i32, ptr, ptr, ...) @proto_tree_add_subtree_format(ptr noundef %4, ptr noundef %8, i32 noundef 0, i32 noundef -1, i32 noundef %13, ptr noundef nonnull %7, ptr noundef nonnull @.str.104, ptr noundef %0)
  %15 = load ptr, ptr %7, align 8
  %16 = call ptr (ptr, ptr, ptr, ptr, ...) @expert_add_info_format(ptr noundef %3, ptr noundef %15, ptr noundef nonnull @ei_rtse_dissector_oid_not_implemented, ptr noundef nonnull @.str.105, ptr noundef %0)
  %17 = call i32 @dissect_unknown_ber(ptr noundef %3, ptr noundef %8, i32 noundef %2, ptr noundef %14)
  call void @llvm.lifetime.end.p0(i64 8, ptr nonnull %7) #4
  br label %18

18:                                               ; preds = %12, %6
  %.0 = phi i32 [ %17, %12 ], [ %10, %6 ]
  %19 = add i32 %.0, %2
  ret i32 %19
}